target datalayout = "e-m:e-p270:32:32-p271:32:32-p272:64:64-i64:64-i128:128-f80:128-n8:16:32:64-S128"
target triple = "x86_64-pc-linux-gnu"

%struct.video_data = type { ptr, i32, i32, i32, i32, i32, i32, i32, i32, ptr, i64, i32, i32, i32, i32, ptr, ptr, ptr, i64, i32, ptr, i32, i32, ptr, i32, ptr, ptr, ptr, ptr, ptr, ptr, ptr }
%struct.v4l2_plane = type { i32, i32, %union.anon.6, i32, [11 x i32] }
%union.anon.6 = type { i64 }
%struct.v4l2_buffer = type { i32, i32, i32, i32, i32, %struct.timeval, %struct.v4l2_timecode, i32, i32, %union.anon.7, i32, i32, %union.anon.8 }
%struct.timeval = type { i64, i64 }
%struct.v4l2_timecode = type { i32, i32, i8, i8, i8, i8, [4 x i8] }
%union.anon.7 = type { i64 }
%union.anon.8 = type { i32 }
%struct.buff_data = type { ptr, i32 }

@.str.93 = private unnamed_addr constant [24 x i8] c"ioctl(VIDIOC_QBUF): %s\0A\00", align 1

; Function Attrs: inlinehint nounwind uwtable
define internal ptr @av_make_error_string(ptr noundef %0, i64 noundef %1, i32 noundef %2) #5 {
  %4 = alloca ptr, align 8
  %5 = alloca i64, align 8
  %6 = alloca i32, align 4
  store ptr %0, ptr %4, align 8, !tbaa !102
  store i64 %1, ptr %5, align 8, !tbaa !113
  store i32 %2, ptr %6, align 4, !tbaa !32
  %7 = load i32, ptr %6, align 4, !tbaa !32
  %8 = load ptr, ptr %4, align 8, !tbaa !102
  %9 = load i64, ptr %5, align 8, !tbaa !113
  %10 = call i32 @av_strerror(i32 noundef %7, ptr noundef %8, i64 noundef %9)
  %11 = load ptr, ptr %4, align 8, !tbaa !102
  ret ptr %11
}

; Function Attrs: nounwind uwtable
define internal i32 @enqueue_buffer(ptr noundef %0, ptr noundef %1) #0 {
  %3 = alloca ptr, align 8
  %4 = alloca ptr, align 8
  %5 = alloca i32, align 4
  %6 = alloca [64 x i8], align 1
  %7 = alloca i32, align 4
  %8 = alloca i32, align 4
  store ptr %0, ptr %3, align 8, !tbaa !30
  store ptr %1, ptr %4, align 8, !tbaa !189
  call void @llvm.lifetime.start.p0(i64 4, ptr %5) #10
  store i32 0, ptr %5, align 4, !tbaa !32
  %9 = load ptr, ptr %3, align 8, !tbaa !30
  %10 = getelementptr inbounds nuw %struct.video_data, ptr %9, i32 0, i32 28
  %11 = load ptr, ptr %10, align 8, !tbaa !42
  %12 = load ptr, ptr %3, align 8, !tbaa !30
  %13 = getelementptr inbounds nuw %struct.video_data, ptr %12, i32 0, i32 1
  %14 = load i32, ptr %13, align 8, !tbaa !36
  %15 = load ptr, ptr %4, align 8, !tbaa !189
  %16 = call i32 (i32, i64, ...) %11(i32 noundef %14, i64 noundef 3227014671, ptr noundef %15)
  %17 = icmp slt i32 %16, 0
  br i1 %17, label %18, label %25

18:                                               ; preds = %2
  %19 = call ptr @__errno_location() #11
  %20 = load i32, ptr %19, align 4, !tbaa !32
  %21 = sub nsw i32 0, %20
  store i32 %21, ptr %5, align 4, !tbaa !32
  call void @llvm.memset.p0.i64(ptr align 1 %6, i8 0, i64 64, i1 false)
  %22 = getelementptr inbounds [64 x i8], ptr %6, i64 0, i64 0
  %23 = load i32, ptr %5, align 4, !tbaa !32
  %24 = call ptr @av_make_error_string(ptr noundef %22, i64 noundef 64, i32 noundef %23)
  call void (ptr, i32, ptr, ...) @av_log(ptr noundef null, i32 noundef 16, ptr noundef @.str.93, ptr noundef %24)
  br label %30

25:                                               ; preds = %2
  %26 = load ptr, ptr %3, align 8, !tbaa !30
  %27 = getelementptr inbounds nuw %struct.video_data, ptr %26, i32 0, i32 14
  store i32 1, ptr %7, align 4, !tbaa !32
  %28 = load i32, ptr %7, align 4
  %29 = atomicrmw add ptr %27, i32 %28 seq_cst, align 4
  store i32 %29, ptr %8, align 4
  br label %30

30:                                               ; preds = %25, %18
  %31 = load i32, ptr %5, align 4, !tbaa !32
  call void @llvm.lifetime.end.p0(i64 4, ptr %5) #10
  ret i32 %31
}

; Function Attrs: nounwind uwtable
define internal void @mmap_release_buffer(ptr noundef %0, ptr noundef %1) #0 {
  %3 = alloca ptr, align 8
  %4 = alloca ptr, align 8
  %5 = alloca [8 x %struct.v4l2_plane], align 16
  %6 = alloca %struct.v4l2_buffer, align 8
  %7 = alloca ptr, align 8
  %8 = alloca ptr, align 8
  store ptr %0, ptr %3, align 8, !tbaa !126
  store ptr %1, ptr %4, align 8, !tbaa !102
  call void @llvm.lifetime.start.p0(i64 512, ptr %5) #10
  call void @llvm.lifetime.start.p0(i64 88, ptr %6) #10
  call void @llvm.memset.p0.i64(ptr align 8 %6, i8 0, i64 88, i1 false)
  call void @llvm.lifetime.start.p0(i64 8, ptr %7) #10
  %9 = load ptr, ptr %3, align 8, !tbaa !126
  store ptr %9, ptr %7, align 8, !tbaa !180
  call void @llvm.lifetime.start.p0(i64 8, ptr %8) #10
  %10 = load ptr, ptr %7, align 8, !tbaa !180
  %11 = getelementptr inbounds nuw %struct.buff_data, ptr %10, i32 0, i32 0
  %12 = load ptr, ptr %11, align 8, !tbaa !184
  store ptr %12, ptr %8, align 8, !tbaa !30
  %13 = load ptr, ptr %8, align 8, !tbaa !30
  %14 = getelementptr inbounds nuw %struct.video_data, ptr %13, i32 0, i32 12
  %15 = load i32, ptr %14, align 4, !tbaa !59
  %16 = getelementptr inbounds nuw %struct.v4l2_buffer, ptr %6, i32 0, i32 1
  store i32 %15, ptr %16, align 4, !tbaa !157
  %17 = getelementptr inbounds nuw %struct.v4l2_buffer, ptr %6, i32 0, i32 8
  store i32 1, ptr %17, align 4, !tbaa !162
  %18 = load ptr, ptr %7, align 8, !tbaa !180
  %19 = getelementptr inbounds nuw %struct.buff_data, ptr %18, i32 0, i32 1
  %20 = load i32, ptr %19, align 8, !tbaa !182
  %21 = getelementptr inbounds nuw %struct.v4l2_buffer, ptr %6, i32 0, i32 0
  store i32 %20, ptr %21, align 8, !tbaa !153
  %22 = load ptr, ptr %8, align 8, !tbaa !30
  %23 = getelementptr inbounds nuw %struct.video_data, ptr %22, i32 0, i32 11
  %24 = load i32, ptr %23, align 8, !tbaa !112
  %25 = icmp ne i32 %24, 0
  br i1 %25, label %26, label %28

26:                                               ; preds = %2
  %27 = getelementptr inbounds [8 x %struct.v4l2_plane], ptr %5, i64 0, i64 0
  br label %29

28:                                               ; preds = %2
  br label %29

29:                                               ; preds = %28, %26
  %30 = phi ptr [ %27, %26 ], [ null, %28 ]
  %31 = getelementptr inbounds nuw %struct.v4l2_buffer, ptr %6, i32 0, i32 9
  store ptr %30, ptr %31, align 8, !tbaa !62
  %32 = load ptr, ptr %8, align 8, !tbaa !30
  %33 = getelementptr inbounds nuw %struct.video_data, ptr %32, i32 0, i32 11
  %34 = load i32, ptr %33, align 8, !tbaa !112
  %35 = icmp ne i32 %34, 0
  %36 = select i1 %35, i32 8, i32 0
  %37 = getelementptr inbounds nuw %struct.v4l2_buffer, ptr %6, i32 0, i32 10
  store i32 %36, ptr %37, align 8, !tbaa !163
  %38 = load ptr, ptr %7, align 8, !tbaa !180
  call void @av_free(ptr noundef %38)
  %39 = load ptr, ptr %8, align 8, !tbaa !30
  %40 = call i32 @enqueue_buffer(ptr noundef %39, ptr noundef %6)
  call void @llvm.lifetime.end.p0(i64 8, ptr %8) #10
  call void @llvm.lifetime.end.p0(i64 8, ptr %7) #10
  call void @llvm.lifetime.end.p0(i64 88, ptr %6) #10
  call void @llvm.lifetime.end.p0(i64 512, ptr %5) #10
  ret void
}