; Function Attrs: nounwind uwtable
define internal void @mmap_release_buffer(ptr noundef %0, ptr readnone captures(none) %1) #0 {
  %3 = alloca [64 x i8], align 1
  %4 = alloca [8 x %struct.v4l2_plane], align 16
  %5 = alloca %struct.v4l2_buffer, align 8
  call void @llvm.lifetime.start.p0(i64 512, ptr nonnull %4) #11
  call void @llvm.lifetime.start.p0(i64 88, ptr nonnull %5) #11
  %6 = getelementptr inbounds nuw i8, ptr %5, i64 8
  call void @llvm.memset.p0.i64(ptr noundef nonnull align 8 dereferenceable(80) %6, i8 0, i64 80, i1 false)
  %7 = load ptr, ptr %0, align 8, !tbaa !114
  %8 = getelementptr inbounds nuw i8, ptr %7, i64 60
  %9 = load i32, ptr %8, align 4, !tbaa !40
  %10 = getelementptr inbounds nuw i8, ptr %5, i64 4
  store i32 %9, ptr %10, align 4, !tbaa !91
  %11 = getelementptr inbounds nuw i8, ptr %5, i64 60
  store i32 1, ptr %11, align 4, !tbaa !95
  %12 = getelementptr inbounds nuw i8, ptr %0, i64 8
  %13 = load i32, ptr %12, align 8, !tbaa !111
  store i32 %13, ptr %5, align 8, !tbaa !100
  %14 = getelementptr inbounds nuw i8, ptr %7, i64 56
  %15 = load i32, ptr %14, align 8, !tbaa !96
  %.not = icmp eq i32 %15, 0
  %16 = select i1 %.not, ptr null, ptr %4
  %17 = getelementptr inbounds nuw i8, ptr %5, i64 64
  store ptr %16, ptr %17, align 8, !tbaa !55
  %18 = select i1 %.not, i32 0, i32 8
  %19 = getelementptr inbounds nuw i8, ptr %5, i64 72
  store i32 %18, ptr %19, align 8, !tbaa !97
  call void @av_free(ptr noundef nonnull %0) #11
  call void @llvm.lifetime.start.p0(i64 64, ptr nonnull %3)
  %20 = getelementptr inbounds nuw i8, ptr %7, i64 168
  %21 = load ptr, ptr %20, align 8, !tbaa !34
  %22 = getelementptr inbounds nuw i8, ptr %7, i64 8
  %23 = load i32, ptr %22, align 8, !tbaa !28
  %24 = call i32 (i32, i64, ...) %21(i32 noundef %23, i64 noundef 3227014671, ptr noundef nonnull %5) #11
  %25 = icmp slt i32 %24, 0
  br i1 %25, label %26, label %31

26:                                               ; preds = %2
  %27 = tail call ptr @__errno_location() #12
  %28 = load i32, ptr %27, align 4, !tbaa !26
  %29 = sub nsw i32 0, %28
  call void @llvm.memset.p0.i64(ptr noundef nonnull align 1 dereferenceable(64) %3, i8 0, i64 64, i1 false)
  %30 = call i32 @av_strerror(i32 noundef range(i32 -2147483647, -2147483648) %29, ptr noundef nonnull %3, i64 noundef 64) #11
  call void (ptr, i32, ptr, ...) @av_log(ptr noundef null, i32 noundef 16, ptr noundef nonnull @.str.93, ptr noundef nonnull %3) #11
  br label %enqueue_buffer.exit

31:                                               ; preds = %2
  %32 = getelementptr inbounds nuw i8, ptr %7, i64 68
  %33 = atomicrmw add ptr %32, i32 1 seq_cst, align 4
  br label %enqueue_buffer.exit

enqueue_buffer.exit:                              ; preds = %26, %31
  call void @llvm.lifetime.end.p0(i64 64, ptr nonnull %3)
  call void @llvm.lifetime.end.p0(i64 88, ptr nonnull %5) #11
  call void @llvm.lifetime.end.p0(i64 512, ptr nonnull %4) #11
  ret void
}